target datalayout = "e-m:e-p270:32:32-p271:32:32-p272:64:64-i64:64-i128:128-f80:128-n8:16:32:64-S128"
target triple = "x86_64-unknown-linux-gnu"

%"class.google::protobuf::internal::InternalMetadata" = type { i64 }
%"class.google::protobuf::internal::HasBits" = type { [1 x i32] }
%"class.google::protobuf::internal::CachedSize" = type { i32 }
%"struct.google::protobuf::internal::ArenaStringPtr" = type { %"class.google::protobuf::internal::TaggedStringPtr" }
%"class.google::protobuf::internal::TaggedStringPtr" = type { ptr }
%"class.google::protobuf::compiler::Version" = type { %"class.google::protobuf::Message", %union.anon }
%"class.google::protobuf::Message" = type { %"class.google::protobuf::MessageLite" }
%"class.google::protobuf::MessageLite" = type { ptr, %"class.google::protobuf::internal::InternalMetadata" }
%union.anon = type { %"struct.google::protobuf::compiler::Version::Impl_" }
%"struct.google::protobuf::compiler::Version::Impl_" = type <{ %"class.google::protobuf::internal::HasBits", %"class.google::protobuf::internal::CachedSize", %"struct.google::protobuf::internal::ArenaStringPtr", i32, i32, i32, [4 x i8] }>

; Function Attrs: noreturn nounwind uwtable
define linkonce_odr hidden void @__clang_call_terminate(ptr noundef %0) #7 comdat {
  %2 = call ptr @__cxa_begin_catch(ptr %0) #3
  call void @_ZSt9terminatev() #14
  unreachable
}

; Function Attrs: mustprogress nounwind uwtable
define linkonce_odr hidden noundef i32 @_ZN4absl12lts_2023080211countl_zeroImEENSt9enable_ifIXsr3std11is_unsignedIT_EE5valueEiE4typeES3_(i64 noundef %x) #5 comdat personality ptr @__gxx_personality_v0 {
entry:
  %x.addr.i1 = alloca i64, align 8
  %x.addr.i = alloca i64, align 8
  %x.addr = alloca i64, align 8
  store i64 %x, ptr %x.addr, align 8
  %0 = load i64, ptr %x.addr, align 8
  store i64 %0, ptr %x.addr.i, align 8
  %1 = load i64, ptr %x.addr.i, align 8
  store i64 %1, ptr %x.addr.i1, align 8
  %2 = load i64, ptr %x.addr.i1, align 8
  %cmp.i = icmp eq i64 %2, 0
  br i1 %cmp.i, label %cond.true.i, label %cond.false.i

cond.true.i:                                      ; preds = %entry
  br label %_ZN4absl12lts_2023080216numeric_internal20CountLeadingZeroes64Em.exit

cond.false.i:                                     ; preds = %entry
  %3 = load i64, ptr %x.addr.i1, align 8
  %4 = call i64 @llvm.ctlz.i64(i64 %3, i1 true)
  %cast.i = trunc i64 %4 to i32
  br label %_ZN4absl12lts_2023080216numeric_internal20CountLeadingZeroes64Em.exit

_ZN4absl12lts_2023080216numeric_internal20CountLeadingZeroes64Em.exit: ; preds = %cond.false.i, %cond.true.i
  %cond.i = phi i32 [ 64, %cond.true.i ], [ %cast.i, %cond.false.i ]
  br label %invoke.cont

invoke.cont:                                      ; preds = %_ZN4absl12lts_2023080216numeric_internal20CountLeadingZeroes64Em.exit
  ret i32 %cond.i

terminate.lpad:                                   ; No predecessors!
  %5 = landingpad { ptr, i32 }
          catch ptr null
  %6 = extractvalue { ptr, i32 } %5, 0
  call void @__clang_call_terminate(ptr %6) #14
  unreachable
}

; Function Attrs: mustprogress nounwind uwtable
define linkonce_odr hidden noundef i32 @_ZN4absl12lts_2023080211countl_zeroIjEENSt9enable_ifIXsr3std11is_unsignedIT_EE5valueEiE4typeES3_(i32 noundef %x) #5 comdat personality ptr @__gxx_personality_v0 {
entry:
  %x.addr.i1 = alloca i32, align 4
  %x.addr.i = alloca i32, align 4
  %x.addr = alloca i32, align 4
  store i32 %x, ptr %x.addr, align 4
  %0 = load i32, ptr %x.addr, align 4
  store i32 %0, ptr %x.addr.i, align 4
  %1 = load i32, ptr %x.addr.i, align 4
  store i32 %1, ptr %x.addr.i1, align 4
  %2 = load i32, ptr %x.addr.i1, align 4
  %cmp.i = icmp eq i32 %2, 0
  br i1 %cmp.i, label %cond.true.i, label %cond.false.i

cond.true.i:                                      ; preds = %entry
  br label %_ZN4absl12lts_2023080216numeric_internal20CountLeadingZeroes32Ej.exit

cond.false.i:                                     ; preds = %entry
  %3 = load i32, ptr %x.addr.i1, align 4
  %4 = call i32 @llvm.ctlz.i32(i32 %3, i1 true)
  br label %_ZN4absl12lts_2023080216numeric_internal20CountLeadingZeroes32Ej.exit

_ZN4absl12lts_2023080216numeric_internal20CountLeadingZeroes32Ej.exit: ; preds = %cond.false.i, %cond.true.i
  %cond.i = phi i32 [ 32, %cond.true.i ], [ %4, %cond.false.i ]
  br label %invoke.cont

invoke.cont:                                      ; preds = %_ZN4absl12lts_2023080216numeric_internal20CountLeadingZeroes32Ej.exit
  ret i32 %cond.i

terminate.lpad:                                   ; No predecessors!
  %5 = landingpad { ptr, i32 }
          catch ptr null
  %6 = extractvalue { ptr, i32 } %5, 0
  call void @__clang_call_terminate(ptr %6) #14
  unreachable
}

; Function Attrs: mustprogress nounwind uwtable
define linkonce_odr hidden noundef i64 @_ZN6google8protobuf2io17CodedOutputStream19VarintSize64PlusOneEm(i64 noundef %value) #5 comdat align 2 {
entry:
  %value.addr = alloca i64, align 8
  %log2value = alloca i32, align 4
  store i64 %value, ptr %value.addr, align 8
  %0 = load i64, ptr %value.addr, align 8
  %or = or i64 %0, 1
  %call = call noundef i32 @_ZN4absl12lts_2023080211countl_zeroImEENSt9enable_ifIXsr3std11is_unsignedIT_EE5valueEiE4typeES3_(i64 noundef %or) #3
  %sub = sub nsw i32 63, %call
  store i32 %sub, ptr %log2value, align 4
  %1 = load i32, ptr %log2value, align 4
  %mul = mul i32 %1, 9
  %add = add i32 %mul, 73
  %add1 = add i32 %add, 64
  %div = udiv i32 %add1, 64
  %conv = zext i32 %div to i64
  ret i64 %conv
}

; Function Attrs: mustprogress nounwind uwtable
define linkonce_odr hidden noundef i64 @_ZN6google8protobuf2io17CodedOutputStream12VarintSize32Ej(i32 noundef %value) #5 comdat align 2 {
entry:
  %value.addr = alloca i32, align 4
  %log2value = alloca i32, align 4
  store i32 %value, ptr %value.addr, align 4
  %0 = load i32, ptr %value.addr, align 4
  %or = or i32 %0, 1
  %call = call noundef i32 @_ZN4absl12lts_2023080211countl_zeroIjEENSt9enable_ifIXsr3std11is_unsignedIT_EE5valueEiE4typeES3_(i32 noundef %or) #3
  %sub = sub nsw i32 31, %call
  store i32 %sub, ptr %log2value, align 4
  %1 = load i32, ptr %log2value, align 4
  %mul = mul i32 %1, 9
  %add = add i32 %mul, 73
  %div = udiv i32 %add, 64
  %conv = zext i32 %div to i64
  ret i64 %conv
}

; Function Attrs: mustprogress nounwind uwtable
define linkonce_odr hidden noundef i64 @_ZNK6google8protobuf8internal15TaggedStringPtr6as_intEv(ptr noundef nonnull align 8 dereferenceable(8) %this) #5 comdat align 2 {
entry:
  %this.addr = alloca ptr, align 8
  store ptr %this, ptr %this.addr, align 8
  %this1 = load ptr, ptr %this.addr, align 8
  %ptr_ = getelementptr inbounds %"class.google::protobuf::internal::TaggedStringPtr", ptr %this1, i32 0, i32 0
  %0 = load ptr, ptr %ptr_, align 8
  %1 = ptrtoint ptr %0 to i64
  ret i64 %1
}

; Function Attrs: mustprogress uwtable
define linkonce_odr hidden noundef i64 @_ZN6google8protobuf2io17CodedOutputStream31VarintSize32SignExtendedPlusOneEi(i32 noundef %value) #4 comdat align 2 {
entry:
  %value.addr = alloca i32, align 4
  store i32 %value, ptr %value.addr, align 4
  %0 = load i32, ptr %value.addr, align 4
  %conv = sext i32 %0 to i64
  %call = call noundef i64 @_ZN6google8protobuf2io17CodedOutputStream19VarintSize64PlusOneEm(i64 noundef %conv)
  ret i64 %call
}

; Function Attrs: mustprogress uwtable
define linkonce_odr hidden noundef i64 @_ZN6google8protobuf8internal14WireFormatLite19LengthDelimitedSizeEm(i64 noundef %length) #4 comdat align 2 {
entry:
  %length.addr = alloca i64, align 8
  store i64 %length, ptr %length.addr, align 8
  %0 = load i64, ptr %length.addr, align 8
  %1 = load i64, ptr %length.addr, align 8
  %conv = trunc i64 %1 to i32
  %call = call noundef i64 @_ZN6google8protobuf2io17CodedOutputStream12VarintSize32Ej(i32 noundef %conv)
  %add = add i64 %0, %call
  ret i64 %add
}

; Function Attrs: mustprogress nounwind uwtable
define linkonce_odr hidden noundef ptr @_ZNK6google8protobuf8internal15TaggedStringPtr3GetB5cxx11Ev(ptr noundef nonnull align 8 dereferenceable(8) %this) #5 comdat align 2 {
entry:
  %this.addr = alloca ptr, align 8
  store ptr %this, ptr %this.addr, align 8
  %this1 = load ptr, ptr %this.addr, align 8
  %call = call noundef i64 @_ZNK6google8protobuf8internal15TaggedStringPtr6as_intEv(ptr noundef nonnull align 8 dereferenceable(8) %this1)
  %and = and i64 %call, -4
  %0 = inttoptr i64 %and to ptr
  ret ptr %0
}

; Function Attrs: mustprogress nounwind uwtable
define linkonce_odr hidden noundef i32 @_ZNK6google8protobuf8compiler7Version15_internal_patchEv(ptr noundef nonnull align 8 dereferenceable(48) %this) #5 comdat align 2 {
entry:
  %this.addr = alloca ptr, align 8
  store ptr %this, ptr %this.addr, align 8
  %this1 = load ptr, ptr %this.addr, align 8
  %0 = getelementptr inbounds %"class.google::protobuf::compiler::Version", ptr %this1, i32 0, i32 1
  %patch_ = getelementptr inbounds %"struct.google::protobuf::compiler::Version::Impl_", ptr %0, i32 0, i32 5
  %1 = load i32, ptr %patch_, align 8
  ret i32 %1
}

; Function Attrs: mustprogress nounwind uwtable
define linkonce_odr hidden noundef i32 @_ZNK6google8protobuf8compiler7Version15_internal_minorEv(ptr noundef nonnull align 8 dereferenceable(48) %this) #5 comdat align 2 {
entry:
  %this.addr = alloca ptr, align 8
  store ptr %this, ptr %this.addr, align 8
  %this1 = load ptr, ptr %this.addr, align 8
  %0 = getelementptr inbounds %"class.google::protobuf::compiler::Version", ptr %this1, i32 0, i32 1
  %minor_ = getelementptr inbounds %"struct.google::protobuf::compiler::Version::Impl_", ptr %0, i32 0, i32 4
  %1 = load i32, ptr %minor_, align 4
  ret i32 %1
}

; Function Attrs: mustprogress uwtable
define linkonce_odr hidden noundef i64 @_ZN6google8protobuf8internal14WireFormatLite16Int32SizePlusOneEi(i32 noundef %value) #4 comdat align 2 {
entry:
  %value.addr = alloca i32, align 4
  store i32 %value, ptr %value.addr, align 4
  %0 = load i32, ptr %value.addr, align 4
  %call = call noundef i64 @_ZN6google8protobuf2io17CodedOutputStream31VarintSize32SignExtendedPlusOneEi(i32 noundef %0)
  ret i64 %call
}

; Function Attrs: mustprogress nounwind uwtable
define linkonce_odr hidden noundef i32 @_ZNK6google8protobuf8compiler7Version15_internal_majorEv(ptr noundef nonnull align 8 dereferenceable(48) %this) #5 comdat align 2 {
entry:
  %this.addr = alloca ptr, align 8
  store ptr %this, ptr %this.addr, align 8
  %this1 = load ptr, ptr %this.addr, align 8
  %0 = getelementptr inbounds %"class.google::protobuf::compiler::Version", ptr %this1, i32 0, i32 1
  %major_ = getelementptr inbounds %"struct.google::protobuf::compiler::Version::Impl_", ptr %0, i32 0, i32 3
  %1 = load i32, ptr %major_, align 8
  ret i32 %1
}

; Function Attrs: mustprogress uwtable
define linkonce_odr hidden noundef i64 @_ZN6google8protobuf8internal14WireFormatLite10StringSizeERKNSt7__cxx1112basic_stringIcSt11char_traitsIcESaIcEEE(ptr noundef nonnull align 8 dereferenceable(32) %value) #4 comdat align 2 {
entry:
  %value.addr = alloca ptr, align 8
  store ptr %value, ptr %value.addr, align 8
  %0 = load ptr, ptr %value.addr, align 8
  %call = call noundef i64 @_ZNKSt7__cxx1112basic_stringIcSt11char_traitsIcESaIcEE4sizeEv(ptr noundef nonnull align 8 dereferenceable(32) %0) #3
  %call1 = call noundef i64 @_ZN6google8protobuf8internal14WireFormatLite19LengthDelimitedSizeEm(i64 noundef %call)
  ret i64 %call1
}

; Function Attrs: mustprogress uwtable
define linkonce_odr hidden noundef nonnull align 8 dereferenceable(32) ptr @_ZNK6google8protobuf8compiler7Version16_internal_suffixB5cxx11Ev(ptr noundef nonnull align 8 dereferenceable(48) %this) #4 comdat align 2 {
entry:
  %this.addr.i = alloca ptr, align 8
  %this.addr = alloca ptr, align 8
  store ptr %this, ptr %this.addr, align 8
  %this1 = load ptr, ptr %this.addr, align 8
  %0 = getelementptr inbounds %"class.google::protobuf::compiler::Version", ptr %this1, i32 0, i32 1
  %suffix_ = getelementptr inbounds %"struct.google::protobuf::compiler::Version::Impl_", ptr %0, i32 0, i32 2
  store ptr %suffix_, ptr %this.addr.i, align 8
  %this1.i = load ptr, ptr %this.addr.i, align 8
  %call.i = call noundef nonnull align 8 dereferenceable(32) ptr @_ZNK6google8protobuf8internal15TaggedStringPtr3GetB5cxx11Ev(ptr noundef nonnull align 8 dereferenceable(8) %this1.i)
  ret ptr %call.i
}

; Function Attrs: mustprogress uwtable
define noundef i64 @_ZNK6google8protobuf8compiler7Version12ByteSizeLongEv(ptr noundef nonnull align 8 dereferenceable(48) %this) unnamed_addr #4 align 2 {
entry:
  %this.addr.i = alloca ptr, align 8
  %index.addr.i = alloca i32, align 4
  %this.addr = alloca ptr, align 8
  %total_size = alloca i64, align 8
  %cached_has_bits = alloca i32, align 4
  store ptr %this, ptr %this.addr, align 8
  %this1 = load ptr, ptr %this.addr, align 8
  store i64 0, ptr %total_size, align 8
  store i32 0, ptr %cached_has_bits, align 4
  %0 = getelementptr inbounds %"class.google::protobuf::compiler::Version", ptr %this1, i32 0, i32 1
  %_has_bits_ = getelementptr inbounds %"struct.google::protobuf::compiler::Version::Impl_", ptr %0, i32 0, i32 0
  store ptr %_has_bits_, ptr %this.addr.i, align 8
  store i32 0, ptr %index.addr.i, align 4
  %this1.i = load ptr, ptr %this.addr.i, align 8
  %1 = load i32, ptr %index.addr.i, align 4
  %idxprom.i = sext i32 %1 to i64
  %arrayidx.i = getelementptr inbounds [1 x i32], ptr %this1.i, i64 0, i64 %idxprom.i
  %2 = load i32, ptr %arrayidx.i, align 4
  store i32 %2, ptr %cached_has_bits, align 4
  %3 = load i32, ptr %cached_has_bits, align 4
  %and = and i32 %3, 15
  %tobool = icmp ne i32 %and, 0
  br i1 %tobool, label %if.then, label %if.end29

if.then:                                          ; preds = %entry
  %4 = load i32, ptr %cached_has_bits, align 4
  %and2 = and i32 %4, 1
  %tobool3 = icmp ne i32 %and2, 0
  br i1 %tobool3, label %if.then4, label %if.end

if.then4:                                         ; preds = %if.then
  %call5 = call noundef nonnull align 8 dereferenceable(32) ptr @_ZNK6google8protobuf8compiler7Version16_internal_suffixB5cxx11Ev(ptr noundef nonnull align 8 dereferenceable(48) %this1)
  %call6 = call noundef i64 @_ZN6google8protobuf8internal14WireFormatLite10StringSizeERKNSt7__cxx1112basic_stringIcSt11char_traitsIcESaIcEEE(ptr noundef nonnull align 8 dereferenceable(32) %call5)
  %add = add i64 1, %call6
  %5 = load i64, ptr %total_size, align 8
  %add7 = add i64 %5, %add
  store i64 %add7, ptr %total_size, align 8
  br label %if.end

if.end:                                           ; preds = %if.then4, %if.then
  %6 = load i32, ptr %cached_has_bits, align 4
  %and8 = and i32 %6, 2
  %tobool9 = icmp ne i32 %and8, 0
  br i1 %tobool9, label %if.then10, label %if.end14

if.then10:                                        ; preds = %if.end
  %call11 = call noundef i32 @_ZNK6google8protobuf8compiler7Version15_internal_majorEv(ptr noundef nonnull align 8 dereferenceable(48) %this1)
  %call12 = call noundef i64 @_ZN6google8protobuf8internal14WireFormatLite16Int32SizePlusOneEi(i32 noundef %call11)
  %7 = load i64, ptr %total_size, align 8
  %add13 = add i64 %7, %call12
  store i64 %add13, ptr %total_size, align 8
  br label %if.end14

if.end14:                                         ; preds = %if.then10, %if.end
  %8 = load i32, ptr %cached_has_bits, align 4
  %and15 = and i32 %8, 4
  %tobool16 = icmp ne i32 %and15, 0
  br i1 %tobool16, label %if.then17, label %if.end21

if.then17:                                        ; preds = %if.end14
  %call18 = call noundef i32 @_ZNK6google8protobuf8compiler7Version15_internal_minorEv(ptr noundef nonnull align 8 dereferenceable(48) %this1)
  %call19 = call noundef i64 @_ZN6google8protobuf8internal14WireFormatLite16Int32SizePlusOneEi(i32 noundef %call18)
  %9 = load i64, ptr %total_size, align 8
  %add20 = add i64 %9, %call19
  store i64 %add20, ptr %total_size, align 8
  br label %if.end21

if.end21:                                         ; preds = %if.then17, %if.end14
  %10 = load i32, ptr %cached_has_bits, align 4
  %and22 = and i32 %10, 8
  %tobool23 = icmp ne i32 %and22, 0
  br i1 %tobool23, label %if.then24, label %if.end28

if.then24:                                        ; preds = %if.end21
  %call25 = call noundef i32 @_ZNK6google8protobuf8compiler7Version15_internal_patchEv(ptr noundef nonnull align 8 dereferenceable(48) %this1)
  %call26 = call noundef i64 @_ZN6google8protobuf8internal14WireFormatLite16Int32SizePlusOneEi(i32 noundef %call25)
  %11 = load i64, ptr %total_size, align 8
  %add27 = add i64 %11, %call26
  store i64 %add27, ptr %total_size, align 8
  br label %if.end28

if.end28:                                         ; preds = %if.then24, %if.end21
  br label %if.end29

if.end29:                                         ; preds = %if.end28, %entry
  %12 = load i64, ptr %total_size, align 8
  %13 = getelementptr inbounds %"class.google::protobuf::compiler::Version", ptr %this1, i32 0, i32 1
  %_cached_size_ = getelementptr inbounds %"struct.google::protobuf::compiler::Version::Impl_", ptr %13, i32 0, i32 1
  %call30 = call noundef i64 @_ZNK6google8protobuf7Message29MaybeComputeUnknownFieldsSizeEmPNS0_8internal10CachedSizeE(ptr noundef nonnull align 8 dereferenceable(16) %this1, i64 noundef %12, ptr noundef %_cached_size_)
  ret i64 %call30
}