; Function Attrs: mustprogress uwtable
define noundef i64 @_ZNK6google8protobuf8compiler7Version12ByteSizeLongEv(ptr noundef nonnull align 8 dereferenceable(48) %this) unnamed_addr #3 align 2 personality ptr @__gxx_personality_v0 {
entry:
  %0 = getelementptr inbounds i8, ptr %this, i64 16
  %1 = load i32, ptr %0, align 8
  %and = and i32 %1, 15
  %tobool.not = icmp eq i32 %and, 0
  br i1 %tobool.not, label %if.end29, label %if.then

if.then:                                          ; preds = %entry
  %and2 = and i32 %1, 1
  %tobool3.not = icmp eq i32 %and2, 0
  br i1 %tobool3.not, label %if.end, label %if.then4

if.then4:                                         ; preds = %if.then
  %suffix_.i = getelementptr inbounds i8, ptr %this, i64 24
  %2 = load ptr, ptr %suffix_.i, align 8
  %3 = ptrtoint ptr %2 to i64
  %and.i.i = and i64 %3, -4
  %4 = inttoptr i64 %and.i.i to ptr
  %call.i = tail call noundef i64 @_ZNKSt7__cxx1112basic_stringIcSt11char_traitsIcESaIcEE4sizeEv(ptr noundef nonnull align 8 dereferenceable(32) %4) #18
  %conv.i.i = trunc i64 %call.i to i32
  %or.i.i.i = or i32 %conv.i.i, 1
  %5 = tail call noundef i32 @llvm.ctlz.i32(i32 %or.i.i.i, i1 true), !range !6
  %sub.i.i.i = xor i32 %5, 31
  %mul.i.i.i = mul nuw nsw i32 %sub.i.i.i, 9
  %add.i.i.i = add nuw nsw i32 %mul.i.i.i, 73
  %div1.i.i.i = lshr i32 %add.i.i.i, 6
  %conv.i.i.i = zext nneg i32 %div1.i.i.i to i64
  %add.i.i = add i64 %call.i, 1
  %add = add i64 %add.i.i, %conv.i.i.i
  br label %if.end

if.end:                                           ; preds = %if.then4, %if.then
  %total_size.0 = phi i64 [ %add, %if.then4 ], [ 0, %if.then ]
  %and8 = and i32 %1, 2
  %tobool9.not = icmp eq i32 %and8, 0
  br i1 %tobool9.not, label %if.end14, label %if.then10

if.then10:                                        ; preds = %if.end
  %major_.i = getelementptr inbounds i8, ptr %this, i64 32
  %6 = load i32, ptr %major_.i, align 8
  %7 = or i32 %6, 1
  %or.i.i.i9 = sext i32 %7 to i64
  %8 = tail call i64 @llvm.ctlz.i64(i64 %or.i.i.i9, i1 true), !range !7
  %sub.i.i.i10 = xor i64 %8, 63
  %mul.i.i.i11 = mul nuw nsw i64 %sub.i.i.i10, 9
  %add1.i.i.i = add nuw nsw i64 %mul.i.i.i11, 137
  %div1.i.i.i12 = lshr i64 %add1.i.i.i, 6
  %add13 = add i64 %div1.i.i.i12, %total_size.0
  br label %if.end14

if.end14:                                         ; preds = %if.then10, %if.end
  %total_size.1 = phi i64 [ %add13, %if.then10 ], [ %total_size.0, %if.end ]
  %and15 = and i32 %1, 4
  %tobool16.not = icmp eq i32 %and15, 0
  br i1 %tobool16.not, label %if.end21, label %if.then17

if.then17:                                        ; preds = %if.end14
  %minor_.i = getelementptr inbounds i8, ptr %this, i64 36
  %9 = load i32, ptr %minor_.i, align 4
  %10 = or i32 %9, 1
  %or.i.i.i13 = sext i32 %10 to i64
  %11 = tail call i64 @llvm.ctlz.i64(i64 %or.i.i.i13, i1 true), !range !7
  %sub.i.i.i14 = xor i64 %11, 63
  %mul.i.i.i15 = mul nuw nsw i64 %sub.i.i.i14, 9
  %add1.i.i.i16 = add nuw nsw i64 %mul.i.i.i15, 137
  %div1.i.i.i17 = lshr i64 %add1.i.i.i16, 6
  %add20 = add i64 %div1.i.i.i17, %total_size.1
  br label %if.end21

if.end21:                                         ; preds = %if.then17, %if.end14
  %total_size.2 = phi i64 [ %add20, %if.then17 ], [ %total_size.1, %if.end14 ]
  %and22 = and i32 %1, 8
  %tobool23.not = icmp eq i32 %and22, 0
  br i1 %tobool23.not, label %if.end29, label %if.then24

if.then24:                                        ; preds = %if.end21
  %patch_.i = getelementptr inbounds i8, ptr %this, i64 40
  %12 = load i32, ptr %patch_.i, align 8
  %13 = or i32 %12, 1
  %or.i.i.i18 = sext i32 %13 to i64
  %14 = tail call i64 @llvm.ctlz.i64(i64 %or.i.i.i18, i1 true), !range !7
  %sub.i.i.i19 = xor i64 %14, 63
  %mul.i.i.i20 = mul nuw nsw i64 %sub.i.i.i19, 9
  %add1.i.i.i21 = add nuw nsw i64 %mul.i.i.i20, 137
  %div1.i.i.i22 = lshr i64 %add1.i.i.i21, 6
  %add27 = add i64 %div1.i.i.i22, %total_size.2
  br label %if.end29

if.end29:                                         ; preds = %if.end21, %if.then24, %entry
  %total_size.3 = phi i64 [ %add27, %if.then24 ], [ %total_size.2, %if.end21 ], [ 0, %entry ]
  %_cached_size_ = getelementptr inbounds i8, ptr %this, i64 20
  %call30 = tail call noundef i64 @_ZNK6google8protobuf7Message29MaybeComputeUnknownFieldsSizeEmPNS0_8internal10CachedSizeE(ptr noundef nonnull align 8 dereferenceable(16) %this, i64 noundef %total_size.3, ptr noundef nonnull %_cached_size_)
  ret i64 %call30
}